; Function Attrs: mustprogress uwtable
define noundef zeroext i1 @_ZN5arrow2io16HadoopFileSystem6ExistsERKNSt7__cxx1112basic_stringIcSt11char_traitsIcESaIcEEE(ptr nocapture noundef nonnull readonly align 8 dereferenceable(16) %this, ptr noundef nonnull align 8 dereferenceable(32) %path) local_unnamed_addr #0 align 2 {
entry:
  %impl_ = getelementptr inbounds i8, ptr %this, i64 8
  %0 = load ptr, ptr %impl_, align 8
  %1 = load ptr, ptr %0, align 8
  %fs_.i = getelementptr inbounds i8, ptr %0, i64 112
  %2 = load ptr, ptr %fs_.i, align 8
  %call.i = tail call noundef ptr @_ZNKSt7__cxx1112basic_stringIcSt11char_traitsIcESaIcEE5c_strEv(ptr noundef nonnull align 8 dereferenceable(32) %path) #21
  %call2.i = tail call noundef i32 @_ZN5arrow2io8internal11LibHdfsShim6ExistsEP13hdfs_internalPKc(ptr noundef nonnull align 8 dereferenceable(312) %1, ptr noundef %2, ptr noundef %call.i)
  %cmp.i = icmp eq i32 %call2.i, 0
  ret i1 %cmp.i
}